target datalayout = "e-m:e-p270:32:32-p271:32:32-p272:64:64-i64:64-i128:128-f80:128-n8:16:32:64-S128"
target triple = "x86_64-unknown-linux-gnu"

%"class.icu_75::UObject" = type { ptr }
%"struct.icu_75::CanonIterData" = type { ptr, ptr, %"class.icu_75::UVector" }
%"class.icu_75::UVector" = type { %"class.icu_75::UObject", i32, i32, ptr, ptr, ptr }

; Function Attrs: mustprogress uwtable
define void @_ZN6icu_7513CanonIterDataC2ER10UErrorCode(ptr noundef nonnull align 8 dereferenceable(56) %this, ptr noundef nonnull align 4 dereferenceable(4) %errorCode) unnamed_addr #0 align 2 {
entry:
  %this.addr = alloca ptr, align 8
  %errorCode.addr = alloca ptr, align 8
  store ptr %this, ptr %this.addr, align 8
  store ptr %errorCode, ptr %errorCode.addr, align 8
  %this1 = load ptr, ptr %this.addr, align 8
  %mutableTrie = getelementptr inbounds %"struct.icu_75::CanonIterData", ptr %this1, i32 0, i32 0
  %0 = load ptr, ptr %errorCode.addr, align 8
  %call = call ptr @umutablecptrie_open_75(i32 noundef 0, i32 noundef 0, ptr noundef %0)
  store ptr %call, ptr %mutableTrie, align 8
  %trie = getelementptr inbounds %"struct.icu_75::CanonIterData", ptr %this1, i32 0, i32 1
  store ptr null, ptr %trie, align 8
  %canonStartSets = getelementptr inbounds %"struct.icu_75::CanonIterData", ptr %this1, i32 0, i32 2
  %1 = load ptr, ptr %errorCode.addr, align 8
  call void @_ZN6icu_757UVectorC1EPFvPvEPFa8UElementS4_ER10UErrorCode(ptr noundef nonnull align 8 dereferenceable(40) %canonStartSets, ptr noundef @uprv_deleteUObject_75, ptr noundef null, ptr noundef nonnull align 4 dereferenceable(4) %1)
  ret void
}