; Function Attrs: mustprogress uwtable
define void @_ZN6icu_7513CanonIterDataC2ER10UErrorCode(ptr noundef nonnull align 8 dereferenceable(56) %this, ptr noundef nonnull align 4 dereferenceable(4) %errorCode) unnamed_addr #0 align 2 {
entry:
  %call = tail call ptr @umutablecptrie_open_75(i32 noundef 0, i32 noundef 0, ptr noundef nonnull %errorCode)
  store ptr %call, ptr %this, align 8
  %trie = getelementptr inbounds i8, ptr %this, i64 8
  store ptr null, ptr %trie, align 8
  %canonStartSets = getelementptr inbounds i8, ptr %this, i64 16
  tail call void @_ZN6icu_757UVectorC1EPFvPvEPFa8UElementS4_ER10UErrorCode(ptr noundef nonnull align 8 dereferenceable(40) %canonStartSets, ptr noundef nonnull @uprv_deleteUObject_75, ptr noundef null, ptr noundef nonnull align 4 dereferenceable(4) %errorCode)
  ret void
}